target datalayout = "e-m:e-p270:32:32-p271:32:32-p272:64:64-i64:64-i128:128-f80:128-n8:16:32:64-S128"
target triple = "x86_64-pc-linux-gnu"

@.str.1 = private unnamed_addr constant [5 x i8] c"fd.c\00", align 1
@.str.31 = private unnamed_addr constant [34 x i8] c"could not open directory \22%s\22: %m\00", align 1
@__func__.ReadDirExtended = private unnamed_addr constant [16 x i8] c"ReadDirExtended\00", align 1
@.str.32 = private unnamed_addr constant [34 x i8] c"could not read directory \22%s\22: %m\00", align 1

; Function Attrs: nounwind uwtable
define dso_local ptr @ReadDirExtended(ptr noundef %0, ptr noundef %1, i32 noundef %2) #0 {
  %4 = alloca ptr, align 8
  %5 = alloca ptr, align 8
  %6 = alloca ptr, align 8
  %7 = alloca i32, align 4
  %8 = alloca ptr, align 8
  %9 = alloca i32, align 4
  store ptr %0, ptr %5, align 8
  store ptr %1, ptr %6, align 8
  store i32 %2, ptr %7, align 4
  call void @llvm.lifetime.start.p0(i64 8, ptr %8) #14
  %10 = load ptr, ptr %5, align 8
  %11 = icmp eq ptr %10, null
  br i1 %11, label %12, label %39

12:                                               ; preds = %3
  br label %13

13:                                               ; preds = %12
  %14 = load i32, ptr %7, align 4
  %15 = call i1 @llvm.is.constant.i32(i32 %14)
  br i1 %15, label %16, label %22

16:                                               ; preds = %13
  %17 = load i32, ptr %7, align 4
  %18 = icmp sge i32 %17, 21
  br i1 %18, label %19, label %22

19:                                               ; preds = %16
  %20 = load i32, ptr %7, align 4
  %21 = call zeroext i1 @errstart_cold(i32 noundef %20, ptr noundef null) #16
  br i1 %21, label %25, label %29

22:                                               ; preds = %16, %13
  %23 = load i32, ptr %7, align 4
  %24 = call zeroext i1 @errstart(i32 noundef %23, ptr noundef null)
  br i1 %24, label %25, label %29

25:                                               ; preds = %22, %19
  %26 = call i32 @errcode_for_file_access()
  %27 = load ptr, ptr %6, align 8
  %28 = call i32 (ptr, ...) @errmsg(ptr noundef @.str.31, ptr noundef %27)
  call void @errfinish(ptr noundef @.str.1, i32 noundef 2956, ptr noundef @__func__.ReadDirExtended)
  br label %29

29:                                               ; preds = %25, %22, %19
  %30 = load i32, ptr %7, align 4
  %31 = call i1 @llvm.is.constant.i32(i32 %30)
  br i1 %31, label %32, label %36

32:                                               ; preds = %29
  %33 = load i32, ptr %7, align 4
  %34 = icmp sge i32 %33, 21
  br i1 %34, label %35, label %36

35:                                               ; preds = %32
  unreachable

36:                                               ; preds = %32, %29
  br label %37

37:                                               ; preds = %36
  br label %38

38:                                               ; preds = %37
  store ptr null, ptr %4, align 8
  store i32 1, ptr %9, align 4
  br label %78

39:                                               ; preds = %3
  %40 = call ptr @__errno_location() #15
  store i32 0, ptr %40, align 4
  %41 = load ptr, ptr %5, align 8
  %42 = call ptr @readdir(ptr noundef %41)
  store ptr %42, ptr %8, align 8
  %43 = icmp ne ptr %42, null
  br i1 %43, label %44, label %46

44:                                               ; preds = %39
  %45 = load ptr, ptr %8, align 8
  store ptr %45, ptr %4, align 8
  store i32 1, ptr %9, align 4
  br label %78

46:                                               ; preds = %39
  %47 = call ptr @__errno_location() #15
  %48 = load i32, ptr %47, align 4
  %49 = icmp ne i32 %48, 0
  br i1 %49, label %50, label %77

50:                                               ; preds = %46
  br label %51

51:                                               ; preds = %50
  %52 = load i32, ptr %7, align 4
  %53 = call i1 @llvm.is.constant.i32(i32 %52)
  br i1 %53, label %54, label %60

54:                                               ; preds = %51
  %55 = load i32, ptr %7, align 4
  %56 = icmp sge i32 %55, 21
  br i1 %56, label %57, label %60

57:                                               ; preds = %54
  %58 = load i32, ptr %7, align 4
  %59 = call zeroext i1 @errstart_cold(i32 noundef %58, ptr noundef null) #16
  br i1 %59, label %63, label %67

60:                                               ; preds = %54, %51
  %61 = load i32, ptr %7, align 4
  %62 = call zeroext i1 @errstart(i32 noundef %61, ptr noundef null)
  br i1 %62, label %63, label %67

63:                                               ; preds = %60, %57
  %64 = call i32 @errcode_for_file_access()
  %65 = load ptr, ptr %6, align 8
  %66 = call i32 (ptr, ...) @errmsg(ptr noundef @.str.32, ptr noundef %65)
  call void @errfinish(ptr noundef @.str.1, i32 noundef 2968, ptr noundef @__func__.ReadDirExtended)
  br label %67

67:                                               ; preds = %63, %60, %57
  %68 = load i32, ptr %7, align 4
  %69 = call i1 @llvm.is.constant.i32(i32 %68)
  br i1 %69, label %70, label %74

70:                                               ; preds = %67
  %71 = load i32, ptr %7, align 4
  %72 = icmp sge i32 %71, 21
  br i1 %72, label %73, label %74

73:                                               ; preds = %70
  unreachable

74:                                               ; preds = %70, %67
  br label %75

75:                                               ; preds = %74
  br label %76

76:                                               ; preds = %75
  br label %77

77:                                               ; preds = %76, %46
  store ptr null, ptr %4, align 8
  store i32 1, ptr %9, align 4
  br label %78

78:                                               ; preds = %77, %44, %38
  call void @llvm.lifetime.end.p0(i64 8, ptr %8) #14
  %79 = load ptr, ptr %4, align 8
  ret ptr %79
}