; Function Attrs: nounwind uwtable
define dso_local ptr @ReadDirExtended(ptr noundef %0, ptr noundef %1, i32 noundef %2) local_unnamed_addr #0 {
  %4 = icmp eq ptr %0, null
  br i1 %4, label %5, label %7

5:                                                ; preds = %3
  %6 = tail call zeroext i1 @errstart(i32 noundef %2, ptr noundef null) #25
  br i1 %6, label %.sink.split.sink.split, label %.sink.split

7:                                                ; preds = %3
  %8 = tail call ptr @__errno_location() #26
  store i32 0, ptr %8, align 4
  %9 = tail call ptr @readdir(ptr noundef nonnull %0) #25
  %.not = icmp eq ptr %9, null
  br i1 %.not, label %10, label %.sink.split

10:                                               ; preds = %7
  %11 = load i32, ptr %8, align 4
  %.not27 = icmp eq i32 %11, 0
  br i1 %.not27, label %.sink.split, label %12

12:                                               ; preds = %10
  %13 = tail call zeroext i1 @errstart(i32 noundef %2, ptr noundef null) #25
  br i1 %13, label %.sink.split.sink.split, label %.sink.split

.sink.split.sink.split:                           ; preds = %12, %5
  %.str.32.sink = phi ptr [ @.str.31, %5 ], [ @.str.32, %12 ]
  %.sink = phi i32 [ 2956, %5 ], [ 2968, %12 ]
  %14 = tail call i32 @errcode_for_file_access() #25
  %15 = tail call i32 (ptr, ...) @errmsg(ptr noundef nonnull %.str.32.sink, ptr noundef %1) #25
  tail call void @errfinish(ptr noundef nonnull @.str.1, i32 noundef %.sink, ptr noundef nonnull @__func__.ReadDirExtended) #25
  br label %.sink.split

.sink.split:                                      ; preds = %5, %12, %.sink.split.sink.split, %10, %7
  %.0 = phi ptr [ %9, %7 ], [ null, %10 ], [ null, %.sink.split.sink.split ], [ null, %12 ], [ null, %5 ]
  ret ptr %.0
}